; Function Attrs: mustprogress nounwind uwtable
define void @_ZN4lean7lthreadD2Ev(ptr noundef nonnull align 8 captures(none) dereferenceable(8) %0) unnamed_addr #7 align 2 personality ptr @__gxx_personality_v0 {
  %2 = load ptr, ptr %0, align 8, !tbaa !35
  %.not.i = icmp eq ptr %2, null
  br i1 %.not.i, label %_ZNSt10unique_ptrIN4lean7lthread3impESt14default_deleteIS2_EED2Ev.exit, label %3

3:                                                ; preds = %1
  %4 = tail call i32 @pthread_attr_destroy(ptr noundef nonnull align 8 dereferenceable(65) %2) #23
  %5 = getelementptr inbounds nuw i8, ptr %2, i64 64
  %6 = load i8, ptr %5, align 8, !tbaa !37, !range !45, !noundef !46
  %7 = trunc nuw i8 %6 to i1
  br i1 %7, label %_ZNKSt14default_deleteIN4lean7lthread3impEEclEPS2_.exit.i, label %8

8:                                                ; preds = %3
  %9 = getelementptr inbounds nuw i8, ptr %2, i64 56
  %10 = load i64, ptr %9, align 8, !tbaa !47
  %11 = tail call i32 @pthread_detach(i64 noundef %10) #23
  br label %_ZNKSt14default_deleteIN4lean7lthread3impEEclEPS2_.exit.i

_ZNKSt14default_deleteIN4lean7lthread3impEEclEPS2_.exit.i: ; preds = %8, %3
  tail call void @_ZdlPvm(ptr noundef nonnull %2, i64 noundef 72) #25
  br label %_ZNSt10unique_ptrIN4lean7lthread3impESt14default_deleteIS2_EED2Ev.exit

_ZNSt10unique_ptrIN4lean7lthread3impESt14default_deleteIS2_EED2Ev.exit: ; preds = %1, %_ZNKSt14default_deleteIN4lean7lthread3impEEclEPS2_.exit.i
  store ptr null, ptr %0, align 8, !tbaa !35
  ret void
}